target datalayout = "e-m:e-p270:32:32-p271:32:32-p272:64:64-i64:64-i128:128-f80:128-n8:16:32:64-S128"
target triple = "x86_64-pc-linux-gnu"

%"class.draco::PointAttribute" = type { %"class.draco::GeometryAttribute", %"class.std::unique_ptr", %"class.draco::IndexTypeVector", i32, i8, %"class.std::unique_ptr.2" }
%"class.draco::GeometryAttribute" = type { ptr, %"struct.draco::DataBufferDescriptor", i8, i32, i8, i64, i64, i32, i32 }
%"struct.draco::DataBufferDescriptor" = type { i64, i64 }
%"class.std::unique_ptr" = type { %"struct.std::__uniq_ptr_data" }
%"struct.std::__uniq_ptr_data" = type { %"class.std::__uniq_ptr_impl" }
%"class.std::__uniq_ptr_impl" = type { %"class.std::tuple" }
%"class.std::tuple" = type { %"struct.std::_Tuple_impl" }
%"struct.std::_Tuple_impl" = type { %"struct.std::_Head_base.1" }
%"struct.std::_Head_base.1" = type { ptr }
%"class.draco::IndexTypeVector" = type { %"class.std::vector" }
%"class.std::vector" = type { %"struct.std::_Vector_base" }
%"struct.std::_Vector_base" = type { %"struct.std::_Vector_base<draco::IndexType<unsigned int, draco::AttributeValueIndex_tag_type_>, std::allocator<draco::IndexType<unsigned int, draco::AttributeValueIndex_tag_type_>>>::_Vector_impl" }
%"struct.std::_Vector_base<draco::IndexType<unsigned int, draco::AttributeValueIndex_tag_type_>, std::allocator<draco::IndexType<unsigned int, draco::AttributeValueIndex_tag_type_>>>::_Vector_impl" = type { %"struct.std::_Vector_base<draco::IndexType<unsigned int, draco::AttributeValueIndex_tag_type_>, std::allocator<draco::IndexType<unsigned int, draco::AttributeValueIndex_tag_type_>>>::_Vector_impl_data" }
%"struct.std::_Vector_base<draco::IndexType<unsigned int, draco::AttributeValueIndex_tag_type_>, std::allocator<draco::IndexType<unsigned int, draco::AttributeValueIndex_tag_type_>>>::_Vector_impl_data" = type { ptr, ptr, ptr }
%"class.std::unique_ptr.2" = type { %"struct.std::__uniq_ptr_data.3" }
%"struct.std::__uniq_ptr_data.3" = type { %"class.std::__uniq_ptr_impl.4" }
%"class.std::__uniq_ptr_impl.4" = type { %"class.std::tuple.5" }
%"class.std::tuple.5" = type { %"struct.std::_Tuple_impl.6" }
%"struct.std::_Tuple_impl.6" = type { %"struct.std::_Head_base.9" }
%"struct.std::_Head_base.9" = type { ptr }
%"class.__gnu_cxx::__normal_iterator.48" = type { ptr }
%"struct.std::_Vector_base.21" = type { %"struct.std::_Vector_base<draco::IndexType<unsigned int, draco::PointIndex_tag_type_>, std::allocator<draco::IndexType<unsigned int, draco::PointIndex_tag_type_>>>::_Vector_impl" }
%"struct.std::_Vector_base<draco::IndexType<unsigned int, draco::PointIndex_tag_type_>, std::allocator<draco::IndexType<unsigned int, draco::PointIndex_tag_type_>>>::_Vector_impl" = type { %"struct.std::_Vector_base<draco::IndexType<unsigned int, draco::PointIndex_tag_type_>, std::allocator<draco::IndexType<unsigned int, draco::PointIndex_tag_type_>>>::_Vector_impl_data" }
%"struct.std::_Vector_base<draco::IndexType<unsigned int, draco::PointIndex_tag_type_>, std::allocator<draco::IndexType<unsigned int, draco::PointIndex_tag_type_>>>::_Vector_impl_data" = type { ptr, ptr, ptr }

; Function Attrs: mustprogress nounwind uwtable
define linkonce_odr noundef nonnull align 8 dereferenceable(8) ptr @_ZNK9__gnu_cxx17__normal_iteratorIPKN5draco9IndexTypeIjNS1_20PointIndex_tag_type_EEESt6vectorIS4_SaIS4_EEE4baseEv(ptr noundef nonnull align 8 dereferenceable(8) %0) #5 comdat align 2 {
  %2 = alloca ptr, align 8
  store ptr %0, ptr %2, align 8
  %3 = load ptr, ptr %2, align 8
  %4 = getelementptr inbounds %"class.__gnu_cxx::__normal_iterator.48", ptr %3, i32 0, i32 0
  ret ptr %4
}

; Function Attrs: mustprogress nounwind uwtable
define linkonce_odr void @_ZN9__gnu_cxx17__normal_iteratorIPKN5draco9IndexTypeIjNS1_20PointIndex_tag_type_EEESt6vectorIS4_SaIS4_EEEC2ERKS6_(ptr noundef nonnull align 8 dereferenceable(8) %0, ptr noundef nonnull align 8 dereferenceable(8) %1) unnamed_addr #5 comdat align 2 {
  %3 = alloca ptr, align 8
  %4 = alloca ptr, align 8
  store ptr %0, ptr %3, align 8
  store ptr %1, ptr %4, align 8
  %5 = load ptr, ptr %3, align 8
  %6 = getelementptr inbounds %"class.__gnu_cxx::__normal_iterator.48", ptr %5, i32 0, i32 0
  %7 = load ptr, ptr %4, align 8
  %8 = load ptr, ptr %7, align 8
  store ptr %8, ptr %6, align 8
  ret void
}

; Function Attrs: mustprogress nounwind uwtable
define linkonce_odr noundef zeroext i1 @_ZN9__gnu_cxxeqIPKN5draco9IndexTypeIjNS1_20PointIndex_tag_type_EEESt6vectorIS4_SaIS4_EEEEbRKNS_17__normal_iteratorIT_T0_EESF_(ptr noundef nonnull align 8 dereferenceable(8) %0, ptr noundef nonnull align 8 dereferenceable(8) %1) #5 comdat {
  %3 = alloca ptr, align 8
  %4 = alloca ptr, align 8
  store ptr %0, ptr %3, align 8
  store ptr %1, ptr %4, align 8
  %5 = load ptr, ptr %3, align 8
  %6 = call noundef nonnull align 8 dereferenceable(8) ptr @_ZNK9__gnu_cxx17__normal_iteratorIPKN5draco9IndexTypeIjNS1_20PointIndex_tag_type_EEESt6vectorIS4_SaIS4_EEE4baseEv(ptr noundef nonnull align 8 dereferenceable(8) %5) #3
  %7 = load ptr, ptr %6, align 8
  %8 = load ptr, ptr %4, align 8
  %9 = call noundef nonnull align 8 dereferenceable(8) ptr @_ZNK9__gnu_cxx17__normal_iteratorIPKN5draco9IndexTypeIjNS1_20PointIndex_tag_type_EEESt6vectorIS4_SaIS4_EEE4baseEv(ptr noundef nonnull align 8 dereferenceable(8) %8) #3
  %10 = load ptr, ptr %9, align 8
  %11 = icmp eq ptr %7, %10
  ret i1 %11
}

; Function Attrs: mustprogress nounwind uwtable
define linkonce_odr ptr @_ZNKSt6vectorIN5draco9IndexTypeIjNS0_20PointIndex_tag_type_EEESaIS3_EE3endEv(ptr noundef nonnull align 8 dereferenceable(24) %0) #5 comdat align 2 {
  %2 = alloca %"class.__gnu_cxx::__normal_iterator.48", align 8
  %3 = alloca ptr, align 8
  store ptr %0, ptr %3, align 8
  %4 = load ptr, ptr %3, align 8
  %5 = getelementptr inbounds %"struct.std::_Vector_base.21", ptr %4, i32 0, i32 0
  %6 = getelementptr inbounds %"struct.std::_Vector_base<draco::IndexType<unsigned int, draco::PointIndex_tag_type_>, std::allocator<draco::IndexType<unsigned int, draco::PointIndex_tag_type_>>>::_Vector_impl_data", ptr %5, i32 0, i32 1
  call void @_ZN9__gnu_cxx17__normal_iteratorIPKN5draco9IndexTypeIjNS1_20PointIndex_tag_type_EEESt6vectorIS4_SaIS4_EEEC2ERKS6_(ptr noundef nonnull align 8 dereferenceable(8) %2, ptr noundef nonnull align 8 dereferenceable(8) %6) #3
  %7 = getelementptr inbounds %"class.__gnu_cxx::__normal_iterator.48", ptr %2, i32 0, i32 0
  %8 = load ptr, ptr %7, align 8
  ret ptr %8
}

; Function Attrs: mustprogress nounwind uwtable
define linkonce_odr ptr @_ZNKSt6vectorIN5draco9IndexTypeIjNS0_20PointIndex_tag_type_EEESaIS3_EE5beginEv(ptr noundef nonnull align 8 dereferenceable(24) %0) #5 comdat align 2 {
  %2 = alloca %"class.__gnu_cxx::__normal_iterator.48", align 8
  %3 = alloca ptr, align 8
  store ptr %0, ptr %3, align 8
  %4 = load ptr, ptr %3, align 8
  %5 = getelementptr inbounds %"struct.std::_Vector_base.21", ptr %4, i32 0, i32 0
  %6 = getelementptr inbounds %"struct.std::_Vector_base<draco::IndexType<unsigned int, draco::PointIndex_tag_type_>, std::allocator<draco::IndexType<unsigned int, draco::PointIndex_tag_type_>>>::_Vector_impl_data", ptr %5, i32 0, i32 0
  call void @_ZN9__gnu_cxx17__normal_iteratorIPKN5draco9IndexTypeIjNS1_20PointIndex_tag_type_EEESt6vectorIS4_SaIS4_EEEC2ERKS6_(ptr noundef nonnull align 8 dereferenceable(8) %2, ptr noundef nonnull align 8 dereferenceable(8) %6) #3
  %7 = getelementptr inbounds %"class.__gnu_cxx::__normal_iterator.48", ptr %2, i32 0, i32 0
  %8 = load ptr, ptr %7, align 8
  ret ptr %8
}

; Function Attrs: mustprogress nounwind uwtable
define linkonce_odr noundef i64 @_ZNK5draco14PointAttribute4sizeEv(ptr noundef nonnull align 8 dereferenceable(112) %0) #5 comdat align 2 {
  %2 = alloca ptr, align 8
  store ptr %0, ptr %2, align 8
  %3 = load ptr, ptr %2, align 8
  %4 = getelementptr inbounds %"class.draco::PointAttribute", ptr %3, i32 0, i32 3
  %5 = load i32, ptr %4, align 8
  %6 = zext i32 %5 to i64
  ret i64 %6
}

; Function Attrs: mustprogress nounwind uwtable
define linkonce_odr noundef zeroext i1 @_ZNKSt6vectorIN5draco9IndexTypeIjNS0_20PointIndex_tag_type_EEESaIS3_EE5emptyEv(ptr noundef nonnull align 8 dereferenceable(24) %0) #5 comdat align 2 {
  %2 = alloca ptr, align 8
  %3 = alloca %"class.__gnu_cxx::__normal_iterator.48", align 8
  %4 = alloca %"class.__gnu_cxx::__normal_iterator.48", align 8
  store ptr %0, ptr %2, align 8
  %5 = load ptr, ptr %2, align 8
  %6 = call ptr @_ZNKSt6vectorIN5draco9IndexTypeIjNS0_20PointIndex_tag_type_EEESaIS3_EE5beginEv(ptr noundef nonnull align 8 dereferenceable(24) %5) #3
  %7 = getelementptr inbounds %"class.__gnu_cxx::__normal_iterator.48", ptr %3, i32 0, i32 0
  store ptr %6, ptr %7, align 8
  %8 = call ptr @_ZNKSt6vectorIN5draco9IndexTypeIjNS0_20PointIndex_tag_type_EEESaIS3_EE3endEv(ptr noundef nonnull align 8 dereferenceable(24) %5) #3
  %9 = getelementptr inbounds %"class.__gnu_cxx::__normal_iterator.48", ptr %4, i32 0, i32 0
  store ptr %8, ptr %9, align 8
  %10 = call noundef zeroext i1 @_ZN9__gnu_cxxeqIPKN5draco9IndexTypeIjNS1_20PointIndex_tag_type_EEESt6vectorIS4_SaIS4_EEEEbRKNS_17__normal_iteratorIT_T0_EESF_(ptr noundef nonnull align 8 dereferenceable(8) %3, ptr noundef nonnull align 8 dereferenceable(8) %4) #3
  ret i1 %10
}

; Function Attrs: mustprogress uwtable
define noundef zeroext i1 @_ZN5draco30AttributeQuantizationTransform18TransformAttributeERKNS_14PointAttributeERKSt6vectorINS_9IndexTypeIjNS_20PointIndex_tag_type_EEESaIS7_EEPS1_(ptr noundef nonnull align 8 dereferenceable(44) %0, ptr noundef nonnull align 8 dereferenceable(112) %1, ptr noundef nonnull align 8 dereferenceable(24) %2, ptr noundef %3) unnamed_addr #4 align 2 {
  %5 = alloca ptr, align 8
  %6 = alloca ptr, align 8
  %7 = alloca ptr, align 8
  %8 = alloca ptr, align 8
  store ptr %0, ptr %5, align 8
  store ptr %1, ptr %6, align 8
  store ptr %2, ptr %7, align 8
  store ptr %3, ptr %8, align 8
  %9 = load ptr, ptr %5, align 8
  %10 = load ptr, ptr %7, align 8
  %11 = call noundef zeroext i1 @_ZNKSt6vectorIN5draco9IndexTypeIjNS0_20PointIndex_tag_type_EEESaIS3_EE5emptyEv(ptr noundef nonnull align 8 dereferenceable(24) %10) #3
  br i1 %11, label %12, label %18

12:                                               ; preds = %4
  %13 = load ptr, ptr %6, align 8
  %14 = load ptr, ptr %8, align 8
  %15 = call noundef i64 @_ZNK5draco14PointAttribute4sizeEv(ptr noundef nonnull align 8 dereferenceable(112) %14)
  %16 = trunc i64 %15 to i32
  %17 = load ptr, ptr %8, align 8
  call void @_ZNK5draco30AttributeQuantizationTransform25GeneratePortableAttributeERKNS_14PointAttributeEiPS1_(ptr noundef nonnull align 8 dereferenceable(44) %9, ptr noundef nonnull align 8 dereferenceable(112) %13, i32 noundef %16, ptr noundef %17)
  br label %25

18:                                               ; preds = %4
  %19 = load ptr, ptr %6, align 8
  %20 = load ptr, ptr %7, align 8
  %21 = load ptr, ptr %8, align 8
  %22 = call noundef i64 @_ZNK5draco14PointAttribute4sizeEv(ptr noundef nonnull align 8 dereferenceable(112) %21)
  %23 = trunc i64 %22 to i32
  %24 = load ptr, ptr %8, align 8
  call void @_ZNK5draco30AttributeQuantizationTransform25GeneratePortableAttributeERKNS_14PointAttributeERKSt6vectorINS_9IndexTypeIjNS_20PointIndex_tag_type_EEESaIS7_EEiPS1_(ptr noundef nonnull align 8 dereferenceable(44) %9, ptr noundef nonnull align 8 dereferenceable(112) %19, ptr noundef nonnull align 8 dereferenceable(24) %20, i32 noundef %23, ptr noundef %24)
  br label %25

25:                                               ; preds = %18, %12
  ret i1 true
}