; Function Attrs: mustprogress uwtable
define noundef zeroext i1 @_ZN5draco30AttributeQuantizationTransform18TransformAttributeERKNS_14PointAttributeERKSt6vectorINS_9IndexTypeIjNS_20PointIndex_tag_type_EEESaIS7_EEPS1_(ptr nocapture noundef nonnull readonly align 8 dereferenceable(44) %0, ptr nocapture noundef nonnull readonly align 8 dereferenceable(112) %1, ptr nocapture noundef nonnull readonly align 8 dereferenceable(24) %2, ptr nocapture noundef readonly %3) unnamed_addr #3 align 2 {
  %5 = load ptr, ptr %2, align 8
  %6 = getelementptr inbounds i8, ptr %2, i64 8
  %7 = load ptr, ptr %6, align 8
  %8 = icmp eq ptr %5, %7
  br i1 %8, label %9, label %12

9:                                                ; preds = %4
  %10 = getelementptr inbounds i8, ptr %3, i64 96
  %11 = load i32, ptr %10, align 8
  tail call void @_ZNK5draco30AttributeQuantizationTransform25GeneratePortableAttributeERKNS_14PointAttributeEiPS1_(ptr noundef nonnull align 8 dereferenceable(44) %0, ptr noundef nonnull align 8 dereferenceable(112) %1, i32 noundef %11, ptr noundef nonnull %3)
  br label %13

12:                                               ; preds = %4
  tail call void @_ZNK5draco30AttributeQuantizationTransform25GeneratePortableAttributeERKNS_14PointAttributeERKSt6vectorINS_9IndexTypeIjNS_20PointIndex_tag_type_EEESaIS7_EEiPS1_(ptr noundef nonnull align 8 dereferenceable(44) %0, ptr noundef nonnull align 8 dereferenceable(112) %1, ptr noundef nonnull align 8 dereferenceable(24) %2, i32 poison, ptr noundef nonnull %3)
  br label %13

13:                                               ; preds = %12, %9
  ret i1 true
}